target datalayout = "e-m:e-p270:32:32-p271:32:32-p272:64:64-i64:64-i128:128-f80:128-n8:16:32:64-S128"
target triple = "x86_64-pc-linux-gnu"

%struct.pointf_s = type { double, double }

@.str.81 = private unnamed_addr constant [9 x i8] c"<ellipse\00", align 1
@.str.82 = private unnamed_addr constant [6 x i8] c" cx=\22\00", align 1
@.str.83 = private unnamed_addr constant [7 x i8] c"\22 cy=\22\00", align 1
@.str.84 = private unnamed_addr constant [7 x i8] c"\22 rx=\22\00", align 1
@.str.85 = private unnamed_addr constant [7 x i8] c"\22 ry=\22\00", align 1
@.str.86 = private unnamed_addr constant [5 x i8] c"\22/>\0A\00", align 1

; Function Attrs: nounwind uwtable
define internal void @svg_ellipse(ptr noundef %0, ptr noundef %1, i32 noundef %2) #0 {
  %4 = alloca ptr, align 8
  %5 = alloca ptr, align 8
  %6 = alloca i32, align 4
  %7 = alloca i32, align 4
  store ptr %0, ptr %4, align 8, !tbaa !3
  store ptr %1, ptr %5, align 8, !tbaa !114
  store i32 %2, ptr %6, align 4, !tbaa !60
  call void @llvm.lifetime.start.p0(i64 4, ptr %7) #9
  store i32 0, ptr %7, align 4, !tbaa !60
  %8 = load i32, ptr %6, align 4, !tbaa !60
  %9 = icmp eq i32 %8, 2
  br i1 %9, label %10, label %14

10:                                               ; preds = %3
  %11 = load ptr, ptr %4, align 8, !tbaa !3
  %12 = load ptr, ptr %5, align 8, !tbaa !114
  %13 = call i32 @svg_gradstyle(ptr noundef %11, ptr noundef %12, i64 noundef 2)
  store i32 %13, ptr %7, align 4, !tbaa !60
  br label %21

14:                                               ; preds = %3
  %15 = load i32, ptr %6, align 4, !tbaa !60
  %16 = icmp eq i32 %15, 3
  br i1 %16, label %17, label %20

17:                                               ; preds = %14
  %18 = load ptr, ptr %4, align 8, !tbaa !3
  %19 = call i32 @svg_rgradstyle(ptr noundef %18)
  store i32 %19, ptr %7, align 4, !tbaa !60
  br label %20

20:                                               ; preds = %17, %14
  br label %21

21:                                               ; preds = %20, %10
  %22 = load ptr, ptr %4, align 8, !tbaa !3
  %23 = call i32 @gvputs(ptr noundef %22, ptr noundef @.str.81)
  %24 = load ptr, ptr %4, align 8, !tbaa !3
  %25 = load i32, ptr %6, align 4, !tbaa !60
  %26 = load i32, ptr %7, align 4, !tbaa !60
  call void @svg_grstyle(ptr noundef %24, i32 noundef %25, i32 noundef %26)
  %27 = load ptr, ptr %4, align 8, !tbaa !3
  %28 = call i32 @gvputs(ptr noundef %27, ptr noundef @.str.82)
  %29 = load ptr, ptr %4, align 8, !tbaa !3
  %30 = load ptr, ptr %5, align 8, !tbaa !114
  %31 = getelementptr inbounds %struct.pointf_s, ptr %30, i64 0
  %32 = getelementptr inbounds nuw %struct.pointf_s, ptr %31, i32 0, i32 0
  %33 = load double, ptr %32, align 8, !tbaa !77
  call void @gvprintdouble(ptr noundef %29, double noundef %33)
  %34 = load ptr, ptr %4, align 8, !tbaa !3
  %35 = call i32 @gvputs(ptr noundef %34, ptr noundef @.str.83)
  %36 = load ptr, ptr %4, align 8, !tbaa !3
  %37 = load ptr, ptr %5, align 8, !tbaa !114
  %38 = getelementptr inbounds %struct.pointf_s, ptr %37, i64 0
  %39 = getelementptr inbounds nuw %struct.pointf_s, ptr %38, i32 0, i32 1
  %40 = load double, ptr %39, align 8, !tbaa !76
  %41 = fneg double %40
  call void @gvprintdouble(ptr noundef %36, double noundef %41)
  %42 = load ptr, ptr %4, align 8, !tbaa !3
  %43 = call i32 @gvputs(ptr noundef %42, ptr noundef @.str.84)
  %44 = load ptr, ptr %4, align 8, !tbaa !3
  %45 = load ptr, ptr %5, align 8, !tbaa !114
  %46 = getelementptr inbounds %struct.pointf_s, ptr %45, i64 1
  %47 = getelementptr inbounds nuw %struct.pointf_s, ptr %46, i32 0, i32 0
  %48 = load double, ptr %47, align 8, !tbaa !77
  %49 = load ptr, ptr %5, align 8, !tbaa !114
  %50 = getelementptr inbounds %struct.pointf_s, ptr %49, i64 0
  %51 = getelementptr inbounds nuw %struct.pointf_s, ptr %50, i32 0, i32 0
  %52 = load double, ptr %51, align 8, !tbaa !77
  %53 = fsub double %48, %52
  call void @gvprintdouble(ptr noundef %44, double noundef %53)
  %54 = load ptr, ptr %4, align 8, !tbaa !3
  %55 = call i32 @gvputs(ptr noundef %54, ptr noundef @.str.85)
  %56 = load ptr, ptr %4, align 8, !tbaa !3
  %57 = load ptr, ptr %5, align 8, !tbaa !114
  %58 = getelementptr inbounds %struct.pointf_s, ptr %57, i64 1
  %59 = getelementptr inbounds nuw %struct.pointf_s, ptr %58, i32 0, i32 1
  %60 = load double, ptr %59, align 8, !tbaa !76
  %61 = load ptr, ptr %5, align 8, !tbaa !114
  %62 = getelementptr inbounds %struct.pointf_s, ptr %61, i64 0
  %63 = getelementptr inbounds nuw %struct.pointf_s, ptr %62, i32 0, i32 1
  %64 = load double, ptr %63, align 8, !tbaa !76
  %65 = fsub double %60, %64
  call void @gvprintdouble(ptr noundef %56, double noundef %65)
  %66 = load ptr, ptr %4, align 8, !tbaa !3
  %67 = call i32 @gvputs(ptr noundef %66, ptr noundef @.str.86)
  call void @llvm.lifetime.end.p0(i64 4, ptr %7) #9
  ret void
}