; Function Attrs: nounwind uwtable
define internal void @svg_ellipse(ptr noundef %0, ptr noundef %1, i32 noundef %2) #0 {
  switch i32 %2, label %8 [
    i32 2, label %4
    i32 3, label %6
  ]

4:                                                ; preds = %3
  %5 = tail call fastcc i32 @svg_gradstyle(ptr noundef %0, ptr noundef %1, i64 noundef 2)
  br label %8

6:                                                ; preds = %3
  %7 = tail call fastcc i32 @svg_rgradstyle(ptr noundef %0)
  br label %8

8:                                                ; preds = %3, %6, %4
  %.0 = phi i32 [ %5, %4 ], [ %7, %6 ], [ 0, %3 ]
  %9 = tail call i32 @gvputs(ptr noundef %0, ptr noundef nonnull @.str.81) #11
  tail call fastcc void @svg_grstyle(ptr noundef %0, i32 noundef %2, i32 noundef %.0)
  %10 = tail call i32 @gvputs(ptr noundef %0, ptr noundef nonnull @.str.82) #11
  %11 = load double, ptr %1, align 8, !tbaa !102
  tail call void @gvprintdouble(ptr noundef %0, double noundef %11) #11
  %12 = tail call i32 @gvputs(ptr noundef %0, ptr noundef nonnull @.str.83) #11
  %13 = getelementptr inbounds nuw i8, ptr %1, i64 8
  %14 = load double, ptr %13, align 8, !tbaa !103
  %15 = fneg double %14
  tail call void @gvprintdouble(ptr noundef %0, double noundef %15) #11
  %16 = tail call i32 @gvputs(ptr noundef %0, ptr noundef nonnull @.str.84) #11
  %17 = getelementptr inbounds nuw i8, ptr %1, i64 16
  %18 = load double, ptr %17, align 8, !tbaa !102
  %19 = load double, ptr %1, align 8, !tbaa !102
  %20 = fsub double %18, %19
  tail call void @gvprintdouble(ptr noundef %0, double noundef %20) #11
  %21 = tail call i32 @gvputs(ptr noundef %0, ptr noundef nonnull @.str.85) #11
  %22 = getelementptr inbounds nuw i8, ptr %1, i64 24
  %23 = load double, ptr %22, align 8, !tbaa !103
  %24 = load double, ptr %13, align 8, !tbaa !103
  %25 = fsub double %23, %24
  tail call void @gvprintdouble(ptr noundef %0, double noundef %25) #11
  %26 = tail call i32 @gvputs(ptr noundef %0, ptr noundef nonnull @.str.86) #11
  ret void
}